Certificate:
    Data:
        Version: 3 (0x2)
        Serial Number: 1 (0x1)
    Signature Algorithm: sha1WithRSAEncryption
        Issuer: C=US, ST=Unset, L=Unset, O=Unset, CN=www.example.com
        Validity
            Not Before: Sep  6 09:11:32 2015 GMT
            Not After : Sep  3 09:11:32 2025 GMT
        Subject: C=US, ST=Unset, O=Unset, CN=www.example.com
        Subject Public Key Info:
            Public Key Algorithm: rsaEncryption
                Public-Key: (2048 bit)
                Modulus:
                    00:c0:0a:08:8e:79:0e:d4:d2:fb:05:a2:14:39:f8:
                    c4:ce:8d:60:a0:3a:a2:90:75:d8:ce:50:95:22:cc:
                    f5:aa:fb:31:9a:d0:bd:44:a0:3a:3b:d5:65:5f:8b:
                    3f:80:98:0f:4d:e0:f1:b8:55:4f:b0:f6:c3:d6:11:
                    31:c2:ce:e6:80:49:bd:01:ee:5a:17:58:c7:5b:a2:
                    a4:3a:10:ca:08:74:66:ec:02:ee:3c:c2:a8:f4:43:
                    5a:1b:0d:3f:86:92:1d:67:b1:cc:f1:d4:bc:e9:13:
                    4f:8c:1e:bf:0c:fd:da:7e:88:4e:76:a2:df:87:4c:
                    6c:25:2a:c9:2e:ab:2d:cd:49:f0:67:ed:aa:15:4b:
                    6d:c9:d1:28:30:98:47:57:db:4f:99:86:a1:a6:7c:
                    49:b4:40:66:49:82:a5:ad:32:0a:41:2d:7f:49:a1:
                    c3:76:35:9b:07:99:46:bc:1d:64:84:5d:11:13:33:
                    79:e5:c7:20:8f:41:8c:6f:51:6a:ef:5f:25:f2:93:
                    74:fd:a2:db:68:3e:f9:4d:4f:7c:01:ed:6a:ff:2f:
                    ff:a1:89:08:c7:8b:04:83:85:d2:17:b3:54:3a:a7:
                    4a:a2:df:93:88:a2:9a:b9:47:a5:7d:72:b1:85:d8:
                    6c:ee:fa:9c:d1:ee:68:1a:51:06:f7:cb:dc:a4:d5:
                    3f:a9
                Exponent: 65537 (0x10001)
        X509v3 extensions:
            X509v3 Basic Constraints: 
                CA:FALSE
            X509v3 Subject Key Identifier: 
                68:FB:48:5E:F1:5D:D4:5E:9A:53:CD:56:9C:C2:C1:B3:AD:B3:2A:0F
            X509v3 Authority Key Identifier: 
                keyid:D9:8E:AB:63:8D:F8:DB:F6:FB:B3:A1:0A:1C:83:27:3F:FA:CE:28:46

    Signature Algorithm: sha1WithRSAEncryption
         97:5d:83:a0:a3:be:59:1f:b4:76:ac:0e:98:38:50:4d:d9:1a:
         11:30:b8:1b:a7:be:dd:14:d6:bd:16:41:cc:b6:e1:cd:d3:4d:
         88:da:d2:e8:17:8f:5d:6e:37:3d:97:ed:11:c6:17:a4:cf:c3:
         4c:56:81:13:81:31:69:8a:e0:57:c6:bc:43:12:30:c4:7a:ae:
         97:24:b6:d4:ad:44:89:d8:91:23:55:de:5e:46:7b:21:31:e3:
         23:4b:79:3f:df:88:d7:ce:7a:54:14:eb:ec:ad:1b:29:84:ca:
         21:04:0a:5d:8d:d9:27:53:d8:d3:ea:48:2f:50:6e:3a:a3:0c:
         80:c0:79:18:a6:8d:d6:7d:91:a3:f3:50:54:9a:61:3c:0c:cd:
         85:7e:56:56:8f:9f:17:cd:87:e9:07:91:5f:52:e8:77:bd:10:
         c3:53:06:da:b8:16:f4:69:62:d8:18:da:51:f7:28:60:8d:c3:
         22:cc:a6:cc:a9:e4:95:2e:b5:ae:bd:47:48:32:b6:18:df:ec:
         05:c2:c9:75:69:f4:d5:63:bc:41:97:52:92:42:b4:ef:74:e5:
         85:ad:43:8f:13:1d:af:cb:40:4f:02:a4:75:b7:4d:7b:1f:06:
         d1:00:cf:9d:c8:89:55:0d:68:36:24:b1:6b:f6:0d:83:1d:82:
         cf:41:1d:ca
-----BEGIN CERTIFICATE-----
MIIDZjCCAk6gAwIBAgIBATANBgkqhkiG9w0BAQUFADBXMQswCQYDVQQGEwJVUzEO
MAwGA1UECAwFVW5zZXQxDjAMBgNVBAcMBVVuc2V0MQ4wDAYDVQQKDAVVbnNldDEY
MBYGA1UEAwwPd3d3LmV4YW1wbGUuY29tMB4XDTE1MDkwNjA5MTEzMloXDTI1MDkw
MzA5MTEzMlowRzELMAkGA1UEBhMCVVMxDjAMBgNVBAgMBVVuc2V0MQ4wDAYDVQQK
DAVVbnNldDEYMBYGA1UEAwwPd3d3LmV4YW1wbGUuY29tMIIBIjANBgkqhkiG9w0B
AQEFAAOCAQ8AMIIBCgKCAQEAwAoIjnkO1NL7BaIUOfjEzo1goDqikHXYzlCVIsz1
qvsxmtC9RKA6O9VlX4s/gJgPTeDxuFVPsPbD1hExws7mgEm9Ae5aF1jHW6KkOhDK
CHRm7ALuPMKo9ENaGw0/hpIdZ7HM8dS86RNPjB6/DP3afohOdqLfh0xsJSrJLqst
zUnwZ+2qFUttydEoMJhHV9tPmYahpnxJtEBmSYKlrTIKQS1/SaHDdjWbB5lGvB1k
hF0REzN55ccgj0GMb1Fq718l8pN0/aLbaD75TU98Ae1q/y//oYkIx4sEg4XSF7NU
OqdKot+TiKKauUelfXKxhdhs7vqc0e5oGlEG98vcpNU/qQIDAQABo00wSzAJBgNV
HRMEAjAAMB0GA1UdDgQWBBRo+0he8V3UXppTzVacwsGzrbMqDzAfBgNVHSMEGDAW
gBTZjqtjjfjb9vuzoQocgyc/+s4oRjANBgkqhkiG9w0BAQUFAAOCAQEAl12DoKO+
WR+0dqwOmDhQTdkaETC4G6e+3RTWvRZBzLbhzdNNiNrS6BePXW43PZftEcYXpM/D
TFaBE4ExaYrgV8a8QxIwxHqulyS21K1EidiRI1XeXkZ7ITHjI0t5P9+I1856VBTr
7K0bKYTKIQQKXY3ZJ1PY0+pIL1BuOqMMgMB5GKaN1n2Ro/NQVJphPAzNhX5WVo+f
F82H6QeRX1Lod70Qw1MG2rgW9Gli2BjaUfcoYI3DIsymzKnklS61rr1HSDK2GN/s
BcLJdWn01WO8QZdSkkK073Tlha1DjxMdr8tATwKkdbdNex8G0QDPnciJVQ1oNiSx
a/YNgx2Cz0Edyg==
-----END CERTIFICATE-----
